; Function Attrs: nounwind uwtable
define dso_local i32 @pq_getkeepalivesinterval(ptr noundef %0) local_unnamed_addr #0 {
  %2 = alloca i32, align 4
  %3 = icmp eq ptr %0, null
  br i1 %3, label %25, label %4

4:                                                ; preds = %1
  %5 = getelementptr inbounds nuw i8, ptr %0, i64 16
  %6 = load i16, ptr %5, align 8
  %7 = icmp eq i16 %6, 1
  br i1 %7, label %25, label %8

8:                                                ; preds = %4
  %9 = getelementptr inbounds nuw i8, ptr %0, i64 388
  %10 = load i32, ptr %9, align 4
  %.not = icmp eq i32 %10, 0
  br i1 %.not, label %11, label %25

11:                                               ; preds = %8
  %12 = getelementptr inbounds nuw i8, ptr %0, i64 372
  %13 = load i32, ptr %12, align 4
  %14 = icmp eq i32 %13, 0
  br i1 %14, label %15, label %25

15:                                               ; preds = %11
  call void @llvm.lifetime.start.p0(i64 4, ptr nonnull %2) #21
  store i32 4, ptr %2, align 4
  %16 = load i32, ptr %0, align 8
  %17 = call i32 @getsockopt(i32 noundef %16, i32 noundef 6, i32 noundef 5, ptr noundef nonnull %12, ptr noundef nonnull %2) #21
  %18 = icmp slt i32 %17, 0
  br i1 %18, label %19, label %._crit_edge

._crit_edge:                                      ; preds = %15
  %.pre.pre = load i32, ptr %12, align 4
  br label %24

19:                                               ; preds = %15
  %20 = call zeroext i1 @errstart(i32 noundef 15, ptr noundef null) #21
  br i1 %20, label %21, label %23

21:                                               ; preds = %19
  %22 = call i32 (ptr, ...) @errmsg(ptr noundef nonnull @.str.3, ptr noundef nonnull @.str.35, ptr noundef nonnull @.str.37) #21
  call void @errfinish(ptr noundef nonnull @.str.2, i32 noundef 1734, ptr noundef nonnull @__func__.pq_getkeepalivesinterval) #21
  br label %23

23:                                               ; preds = %21, %19
  store i32 -1, ptr %12, align 4
  br label %24

24:                                               ; preds = %._crit_edge, %23
  %.pre = phi i32 [ %.pre.pre, %._crit_edge ], [ -1, %23 ]
  call void @llvm.lifetime.end.p0(i64 4, ptr nonnull %2) #21
  br label %25

25:                                               ; preds = %11, %24, %8, %1, %4
  %.0 = phi i32 [ 0, %4 ], [ 0, %1 ], [ %10, %8 ], [ %.pre, %24 ], [ %13, %11 ]
  ret i32 %.0
}